target datalayout = "e-m:e-p270:32:32-p271:32:32-p272:64:64-i64:64-i128:128-f80:128-n8:16:32:64-S128"
target triple = "x86_64-pc-linux-gnu"

%"class.i18n::phonenumbers::StringPiece" = type { ptr, i64 }

; Function Attrs: mustprogress nounwind uwtable
define linkonce_odr dso_local noundef i32 @_ZN4i18n12phonenumbers11StringPiece10wordmemcmpEPKcS3_m(ptr noundef %0, ptr noundef %1, i64 noundef %2) #2 comdat align 2 {
  %4 = alloca ptr, align 8
  %5 = alloca ptr, align 8
  %6 = alloca i64, align 8
  store ptr %0, ptr %4, align 8, !tbaa !16
  store ptr %1, ptr %5, align 8, !tbaa !16
  store i64 %2, ptr %6, align 8, !tbaa !17
  %7 = load ptr, ptr %4, align 8, !tbaa !16
  %8 = load ptr, ptr %5, align 8, !tbaa !16
  %9 = load i64, ptr %6, align 8, !tbaa !17
  %10 = call i32 @memcmp(ptr noundef %7, ptr noundef %8, i64 noundef %9) #12
  ret i32 %10
}

; Function Attrs: mustprogress nounwind uwtable
define linkonce_odr dso_local noundef ptr @_ZNK4i18n12phonenumbers11StringPiece4dataEv(ptr noundef nonnull align 8 dereferenceable(16) %0) #2 comdat align 2 {
  %2 = alloca ptr, align 8
  store ptr %0, ptr %2, align 8, !tbaa !9
  %3 = load ptr, ptr %2, align 8
  %4 = getelementptr inbounds nuw %"class.i18n::phonenumbers::StringPiece", ptr %3, i32 0, i32 0
  %5 = load ptr, ptr %4, align 8, !tbaa !11
  ret ptr %5
}

; Function Attrs: mustprogress nounwind uwtable
define linkonce_odr dso_local noundef i64 @_ZNK4i18n12phonenumbers11StringPiece4sizeEv(ptr noundef nonnull align 8 dereferenceable(16) %0) #2 comdat align 2 {
  %2 = alloca ptr, align 8
  store ptr %0, ptr %2, align 8, !tbaa !9
  %3 = load ptr, ptr %2, align 8
  %4 = getelementptr inbounds nuw %"class.i18n::phonenumbers::StringPiece", ptr %3, i32 0, i32 1
  %5 = load i64, ptr %4, align 8, !tbaa !15
  ret i64 %5
}

; Function Attrs: mustprogress uwtable
define dso_local noundef zeroext i1 @_ZN4i18n12phonenumberseqERKNS0_11StringPieceES3_(ptr noundef nonnull align 8 dereferenceable(16) %0, ptr noundef nonnull align 8 dereferenceable(16) %1) #0 {
  %3 = alloca i1, align 1
  %4 = alloca ptr, align 8
  %5 = alloca ptr, align 8
  store ptr %0, ptr %4, align 8, !tbaa !9
  store ptr %1, ptr %5, align 8, !tbaa !9
  %6 = load ptr, ptr %4, align 8, !tbaa !9
  %7 = call noundef i64 @_ZNK4i18n12phonenumbers11StringPiece4sizeEv(ptr noundef nonnull align 8 dereferenceable(16) %6)
  %8 = load ptr, ptr %5, align 8, !tbaa !9
  %9 = call noundef i64 @_ZNK4i18n12phonenumbers11StringPiece4sizeEv(ptr noundef nonnull align 8 dereferenceable(16) %8)
  %10 = icmp ne i64 %7, %9
  br i1 %10, label %11, label %12

11:                                               ; preds = %2
  store i1 false, ptr %3, align 1
  br label %21

12:                                               ; preds = %2
  %13 = load ptr, ptr %4, align 8, !tbaa !9
  %14 = call noundef ptr @_ZNK4i18n12phonenumbers11StringPiece4dataEv(ptr noundef nonnull align 8 dereferenceable(16) %13)
  %15 = load ptr, ptr %5, align 8, !tbaa !9
  %16 = call noundef ptr @_ZNK4i18n12phonenumbers11StringPiece4dataEv(ptr noundef nonnull align 8 dereferenceable(16) %15)
  %17 = load ptr, ptr %4, align 8, !tbaa !9
  %18 = call noundef i64 @_ZNK4i18n12phonenumbers11StringPiece4sizeEv(ptr noundef nonnull align 8 dereferenceable(16) %17)
  %19 = call noundef i32 @_ZN4i18n12phonenumbers11StringPiece10wordmemcmpEPKcS3_m(ptr noundef %14, ptr noundef %16, i64 noundef %18)
  %20 = icmp eq i32 %19, 0
  store i1 %20, ptr %3, align 1
  br label %21

21:                                               ; preds = %12, %11
  %22 = load i1, ptr %3, align 1
  ret i1 %22
}