; Function Attrs: mustprogress nofree nounwind willreturn memory(read, inaccessiblemem: none) uwtable
define dso_local noundef zeroext i1 @_ZN4i18n12phonenumberseqERKNS0_11StringPieceES3_(ptr noundef nonnull readonly align 8 captures(none) dereferenceable(16) %0, ptr noundef nonnull readonly align 8 captures(none) dereferenceable(16) %1) local_unnamed_addr #2 {
  %3 = getelementptr inbounds nuw i8, ptr %0, i64 8
  %4 = load i64, ptr %3, align 8, !tbaa !11
  %5 = getelementptr inbounds nuw i8, ptr %1, i64 8
  %6 = load i64, ptr %5, align 8, !tbaa !11
  %.not = icmp eq i64 %4, %6
  br i1 %.not, label %7, label %11

7:                                                ; preds = %2
  %8 = load ptr, ptr %0, align 8, !tbaa !4
  %9 = load ptr, ptr %1, align 8, !tbaa !4
  %bcmp = tail call i32 @bcmp(ptr %8, ptr %9, i64 %4)
  %10 = icmp eq i32 %bcmp, 0
  br label %11

11:                                               ; preds = %2, %7
  %.0 = phi i1 [ %10, %7 ], [ false, %2 ]
  ret i1 %.0
}